target datalayout = "e-m:e-p270:32:32-p271:32:32-p272:64:64-i64:64-i128:128-f80:128-n8:16:32:64-S128"
target triple = "x86_64-pc-linux-gnu"

%struct.read_file_data = type { i32, i64, ptr, i32, i8, i32, %union.anon }
%union.anon = type { [1 x i32] }

@.str.10 = private unnamed_addr constant [23 x i8] c"Error seeking in stdin\00", align 1
@.str.11 = private unnamed_addr constant [22 x i8] c"Error seeking in '%s'\00", align 1
@.str.12 = private unnamed_addr constant [22 x i8] c"Error seeking in '%S'\00", align 1

; Function Attrs: nounwind uwtable
define internal i64 @file_skip_lseek(ptr noundef %0, ptr noundef %1, i64 noundef %2) #0 {
  %4 = alloca i64, align 8
  %5 = alloca ptr, align 8
  %6 = alloca ptr, align 8
  %7 = alloca i64, align 8
  %8 = alloca ptr, align 8
  %9 = alloca i64, align 8
  %10 = alloca i64, align 8
  store ptr %0, ptr %5, align 8
  store ptr %1, ptr %6, align 8
  store i64 %2, ptr %7, align 8
  %11 = load ptr, ptr %6, align 8
  store ptr %11, ptr %8, align 8
  %12 = load ptr, ptr %8, align 8
  %13 = getelementptr inbounds %struct.read_file_data, ptr %12, i32 0, i32 0
  %14 = load i32, ptr %13, align 8
  %15 = call i64 @lseek(i32 noundef %14, i64 noundef 0, i32 noundef 1) #9
  store i64 %15, ptr %9, align 8
  %16 = icmp sge i64 %15, 0
  br i1 %16, label %17, label %28

17:                                               ; preds = %3
  %18 = load ptr, ptr %8, align 8
  %19 = getelementptr inbounds %struct.read_file_data, ptr %18, i32 0, i32 0
  %20 = load i32, ptr %19, align 8
  %21 = load i64, ptr %7, align 8
  %22 = call i64 @lseek(i32 noundef %20, i64 noundef %21, i32 noundef 1) #9
  store i64 %22, ptr %10, align 8
  %23 = icmp sge i64 %22, 0
  br i1 %23, label %24, label %28

24:                                               ; preds = %17
  %25 = load i64, ptr %10, align 8
  %26 = load i64, ptr %9, align 8
  %27 = sub nsw i64 %25, %26
  store i64 %27, ptr %4, align 8
  br label %65

28:                                               ; preds = %17, %3
  %29 = load ptr, ptr %8, align 8
  %30 = getelementptr inbounds %struct.read_file_data, ptr %29, i32 0, i32 4
  store i8 0, ptr %30, align 4
  %31 = call ptr @__errno_location() #10
  %32 = load i32, ptr %31, align 4
  %33 = icmp eq i32 %32, 29
  br i1 %33, label %34, label %35

34:                                               ; preds = %28
  store i64 0, ptr %4, align 8
  br label %65

35:                                               ; preds = %28
  %36 = load ptr, ptr %8, align 8
  %37 = getelementptr inbounds %struct.read_file_data, ptr %36, i32 0, i32 5
  %38 = load i32, ptr %37, align 8
  %39 = icmp eq i32 %38, 0
  br i1 %39, label %40, label %44

40:                                               ; preds = %35
  %41 = load ptr, ptr %5, align 8
  %42 = call ptr @__errno_location() #10
  %43 = load i32, ptr %42, align 4
  call void (ptr, i32, ptr, ...) @archive_set_error(ptr noundef %41, i32 noundef %43, ptr noundef @.str.10)
  br label %64

44:                                               ; preds = %35
  %45 = load ptr, ptr %8, align 8
  %46 = getelementptr inbounds %struct.read_file_data, ptr %45, i32 0, i32 5
  %47 = load i32, ptr %46, align 8
  %48 = icmp eq i32 %47, 1
  br i1 %48, label %49, label %56

49:                                               ; preds = %44
  %50 = load ptr, ptr %5, align 8
  %51 = call ptr @__errno_location() #10
  %52 = load i32, ptr %51, align 4
  %53 = load ptr, ptr %8, align 8
  %54 = getelementptr inbounds %struct.read_file_data, ptr %53, i32 0, i32 6
  %55 = getelementptr inbounds [1 x i8], ptr %54, i64 0, i64 0
  call void (ptr, i32, ptr, ...) @archive_set_error(ptr noundef %50, i32 noundef %52, ptr noundef @.str.11, ptr noundef %55)
  br label %63

56:                                               ; preds = %44
  %57 = load ptr, ptr %5, align 8
  %58 = call ptr @__errno_location() #10
  %59 = load i32, ptr %58, align 4
  %60 = load ptr, ptr %8, align 8
  %61 = getelementptr inbounds %struct.read_file_data, ptr %60, i32 0, i32 6
  %62 = getelementptr inbounds [1 x i32], ptr %61, i64 0, i64 0
  call void (ptr, i32, ptr, ...) @archive_set_error(ptr noundef %57, i32 noundef %59, ptr noundef @.str.12, ptr noundef %62)
  br label %63

63:                                               ; preds = %56, %49
  br label %64

64:                                               ; preds = %63, %40
  store i64 -1, ptr %4, align 8
  br label %65

65:                                               ; preds = %64, %34, %24
  %66 = load i64, ptr %4, align 8
  ret i64 %66
}

; Function Attrs: nounwind uwtable
define internal i64 @file_skip(ptr noundef %0, ptr noundef %1, i64 noundef %2) #0 {
  %4 = alloca i64, align 8
  %5 = alloca ptr, align 8
  %6 = alloca ptr, align 8
  %7 = alloca i64, align 8
  %8 = alloca ptr, align 8
  store ptr %0, ptr %5, align 8
  store ptr %1, ptr %6, align 8
  store i64 %2, ptr %7, align 8
  %9 = load ptr, ptr %6, align 8
  store ptr %9, ptr %8, align 8
  %10 = load ptr, ptr %8, align 8
  %11 = getelementptr inbounds %struct.read_file_data, ptr %10, i32 0, i32 4
  %12 = load i8, ptr %11, align 4
  %13 = icmp ne i8 %12, 0
  br i1 %13, label %14, label %19

14:                                               ; preds = %3
  %15 = load ptr, ptr %5, align 8
  %16 = load ptr, ptr %6, align 8
  %17 = load i64, ptr %7, align 8
  %18 = call i64 @file_skip_lseek(ptr noundef %15, ptr noundef %16, i64 noundef %17)
  store i64 %18, ptr %4, align 8
  br label %20

19:                                               ; preds = %3
  store i64 0, ptr %4, align 8
  br label %20

20:                                               ; preds = %19, %14
  %21 = load i64, ptr %4, align 8
  ret i64 %21
}