; Function Attrs: nounwind uwtable
define internal range(i64 -9223372036854775807, -9223372036854775808) i64 @file_skip(ptr noundef %0, ptr noundef %1, i64 noundef %2) #0 {
  %4 = getelementptr inbounds nuw i8, ptr %1, i64 28
  %5 = load i8, ptr %4, align 4
  %.not = icmp eq i8 %5, 0
  br i1 %.not, label %file_skip_lseek.exit, label %6

6:                                                ; preds = %3
  %7 = load i32, ptr %1, align 8
  %8 = tail call i64 @lseek(i32 noundef %7, i64 noundef 0, i32 noundef 1) #14
  %9 = icmp sgt i64 %8, -1
  br i1 %9, label %10, label %16

10:                                               ; preds = %6
  %11 = load i32, ptr %1, align 8
  %12 = tail call i64 @lseek(i32 noundef %11, i64 noundef %2, i32 noundef 1) #14
  %13 = icmp sgt i64 %12, -1
  br i1 %13, label %14, label %16

14:                                               ; preds = %10
  %15 = sub nsw i64 %12, %8
  br label %file_skip_lseek.exit

16:                                               ; preds = %10, %6
  store i8 0, ptr %4, align 4
  %17 = tail call ptr @__errno_location() #17
  %18 = load i32, ptr %17, align 4
  %19 = icmp eq i32 %18, 29
  br i1 %19, label %file_skip_lseek.exit, label %20

20:                                               ; preds = %16
  %21 = getelementptr inbounds nuw i8, ptr %1, i64 32
  %22 = load i32, ptr %21, align 8
  switch i32 %22, label %26 [
    i32 0, label %23
    i32 1, label %24
  ]

23:                                               ; preds = %20
  tail call void (ptr, i32, ptr, ...) @archive_set_error(ptr noundef %0, i32 noundef %18, ptr noundef nonnull @.str.10) #14
  br label %file_skip_lseek.exit

24:                                               ; preds = %20
  %25 = getelementptr inbounds nuw i8, ptr %1, i64 36
  tail call void (ptr, i32, ptr, ...) @archive_set_error(ptr noundef %0, i32 noundef %18, ptr noundef nonnull @.str.11, ptr noundef nonnull %25) #14
  br label %file_skip_lseek.exit

26:                                               ; preds = %20
  %27 = getelementptr inbounds nuw i8, ptr %1, i64 36
  tail call void (ptr, i32, ptr, ...) @archive_set_error(ptr noundef %0, i32 noundef %18, ptr noundef nonnull @.str.12, ptr noundef nonnull %27) #14
  br label %file_skip_lseek.exit

file_skip_lseek.exit:                             ; preds = %26, %24, %23, %16, %14, %3
  %.0 = phi i64 [ 0, %3 ], [ %15, %14 ], [ 0, %16 ], [ -1, %24 ], [ -1, %26 ], [ -1, %23 ]
  ret i64 %.0
}